(i__main__
FootyFeed
p0
(dp1
S'lastBuildDate'
p2
cdatetime
datetime
p3
(S'\x07\xd8\x02\x1d\x0e./\n_\xaf'
p4
tp5
Rp6
sS'currentGuids'
p7
(dp8
S'http://www.oreilly.com/catalog/new.html#1204325208.61'
p9
g6
ssS'rating'
p10
NsS'image'
p11
NsS'maxItems'
p12
I20
sS'ttl'
p13
NsS'skipHours'
p14
NsS'cloud'
p15
NsS'copyright'
p16
NsS'title'
p17
S'Football at the George & Dragon'
p18
sS'etag'
p19
S'"73d572-a33b-47c7d979"'
p20
sS'textInput'
p21
NsS'description'
p22
S"Keep track of O'Reilly books as they're announced"
p23
sS'docs'
p24
S'http://blogs.law.harvard.edu/tech/rss'
p25
sS'link'
p26
S'http://www.oreilly.com/catalog/new.html'
p27
sS'skipDays'
p28
NsS'categories'
p29
(lp30
sS'pubDate'
p31
NsS'language'
p32
NsS'url'
p33
g27
sS'items'
p34
(lp35
(iPyRSS2Gen
RSSItem
p36
(dp37
g22
V<p>Unable to finish scraping this webpage into a feed. Please get the person in charge of maintaining the scraped feed (<i>not</i> the person in charge of the original website) to fix this.</p> <p>Stack trace:</p> <pre>  File "/home/.harvard/bsharon/footyrss/ScrapeNFeed.py", line 84, in refresh\u000a    self.HTML2RSS(headers, body)\u000a\u000a  File "test.py", line 13, in HTML2RSS\u000a    for row in table('tr'):\u000a'NoneType' object is not callable</pre>
p38
sg31
g6
sS'author'
p39
Nsg17
VError scraping this feed
p40
sS'comments'
p41
NsS'source'
p42
Nsg26
Vhttp://www.oreilly.com/catalog/new.html#1204325208.61
p43
sS'guid'
p44
(iPyRSS2Gen
Guid
p45
(dp46
S'isPermaLink'
p47
I1
sg44
g9
sbsS'enclosure'
p48
Nsg29
(lp49
sbasS'generator'
p50
S'PyRSS2Gen-1.0.0'
p51
sS'baseURL'
p52
S'http://www.oreilly.com/catalog/'
p53
sS'managingEditor'
p54
S'leonardr@segfault.org (Leonard Richardson)'
p55
sS'rssFile'
p56
S'footy.xml'
p57
sS'pickleFile'
p58
S'footy.pickle'
p59
sS'lastModified'
p60
S'Fri, 29 Feb 2008 10:07:53 GMT'
p61
sS'webMaster'
p62
Nsb.